; Function Attrs: mustprogress uwtable
define noundef zeroext i1 @_ZNK6google8protobuf20FieldDescriptorProto13IsInitializedEv(ptr nocapture noundef nonnull readonly align 8 dereferenceable(96) %this) unnamed_addr #3 align 2 {
entry:
  %0 = getelementptr inbounds i8, ptr %this, i64 16
  %1 = load i32, ptr %0, align 8
  %and = and i32 %1, 32
  %cmp.not = icmp eq i32 %and, 0
  br i1 %cmp.not, label %return, label %if.then

if.then:                                          ; preds = %entry
  %options_ = getelementptr inbounds i8, ptr %this, i64 64
  %2 = load ptr, ptr %options_, align 8
  %3 = getelementptr inbounds i8, ptr %2, i64 16
  %call2.i = tail call noundef zeroext i1 @_ZNK6google8protobuf8internal12ExtensionSet13IsInitializedEPKNS0_11MessageLiteE(ptr noundef nonnull align 8 dereferenceable(24) %3, ptr noundef nonnull @_ZN6google8protobuf31_FieldOptions_default_instance_E)
  br i1 %call2.i, label %if.end.i, label %_ZNK6google8protobuf12FieldOptions13IsInitializedEv.exit.thread

if.end.i:                                         ; preds = %if.then
  %uninterpreted_option_.i.i = getelementptr inbounds i8, ptr %2, i64 88
  %call4.i = tail call noundef zeroext i1 @_ZN6google8protobuf8internal17AllAreInitializedINS0_19UninterpretedOptionEEEbRKNS0_16RepeatedPtrFieldIT_EE(ptr noundef nonnull align 8 dereferenceable(24) %uninterpreted_option_.i.i)
  br i1 %call4.i, label %if.end6.i, label %_ZNK6google8protobuf12FieldOptions13IsInitializedEv.exit.thread

if.end6.i:                                        ; preds = %if.end.i
  %_has_bits_.i = getelementptr inbounds i8, ptr %2, i64 40
  %4 = load i32, ptr %_has_bits_.i, align 4
  %and.i = and i32 %4, 1
  %cmp.not.i = icmp eq i32 %and.i, 0
  br i1 %cmp.not.i, label %return, label %if.then8.i

if.then8.i:                                       ; preds = %if.end6.i
  %features_.i = getelementptr inbounds i8, ptr %2, i64 112
  %5 = load ptr, ptr %features_.i, align 8
  %6 = getelementptr inbounds i8, ptr %5, i64 16
  %call2.i.i = tail call noundef zeroext i1 @_ZNK6google8protobuf8internal12ExtensionSet13IsInitializedEPKNS0_11MessageLiteE(ptr noundef nonnull align 8 dereferenceable(24) %6, ptr noundef nonnull @_ZN6google8protobuf29_FeatureSet_default_instance_E)
  br i1 %call2.i.i, label %return, label %_ZNK6google8protobuf12FieldOptions13IsInitializedEv.exit.thread

_ZNK6google8protobuf12FieldOptions13IsInitializedEv.exit.thread: ; preds = %if.then, %if.end.i, %if.then8.i
  br label %return

return:                                           ; preds = %entry, %if.end6.i, %if.then8.i, %_ZNK6google8protobuf12FieldOptions13IsInitializedEv.exit.thread
  %retval.0 = phi i1 [ false, %_ZNK6google8protobuf12FieldOptions13IsInitializedEv.exit.thread ], [ true, %if.then8.i ], [ true, %if.end6.i ], [ true, %entry ]
  ret i1 %retval.0
}